   1               		.file	"usart.c"
   2               	__SP_H__ = 0x3e
   3               	__SP_L__ = 0x3d
   4               	__SREG__ = 0x3f
   5               	__tmp_reg__ = 0
   6               	__zero_reg__ = 1
   7               		.text
   8               	.Ltext0:
   9               		.cfi_sections	.debug_frame
  10               		.file 0 "/home/vanilla/projects/timer" "src/usart.c"
  11               	.global	usart_init
  13               	usart_init:
  14               	.LVL0:
  15               	.LFB4:
  16               		.file 1 "src/usart.c"
   1:src/usart.c   **** #include "usart.h"
   2:src/usart.c   **** #include <avr/io.h> // Include here if avr/io.h is needed for USART functions
   3:src/usart.c   **** #include "bit.h"
   4:src/usart.c   **** 
   5:src/usart.c   **** #include <stdlib.h>
   6:src/usart.c   **** 
   7:src/usart.c   **** void usart_init(unsigned int ubrr)
   8:src/usart.c   **** {
  17               		.loc 1 8 1 view -0
  18               		.cfi_startproc
  19               	/* prologue: function */
  20               	/* frame size = 0 */
  21               	/* stack size = 0 */
  22               	.L__stack_usage = 0
   9:src/usart.c   ****   /*Set baud rate */
  10:src/usart.c   ****   UBRR0H = (unsigned char)(ubrr >> 8);
  23               		.loc 1 10 3 view .LVU1
  24               		.loc 1 10 10 is_stmt 0 view .LVU2
  25 0000 9093 C500 		sts 197,r25
  11:src/usart.c   ****   UBRR0L = (unsigned char)ubrr;
  26               		.loc 1 11 3 is_stmt 1 view .LVU3
  27               		.loc 1 11 10 is_stmt 0 view .LVU4
  28 0004 8093 C400 		sts 196,r24
  12:src/usart.c   ****   // Enable receiver and transmitter */
  13:src/usart.c   ****   // bitSet(UCSR0A, U2X0);
  14:src/usart.c   ****   UCSR0B = (1 << RXEN0) | (1 << TXEN0);
  29               		.loc 1 14 3 is_stmt 1 view .LVU5
  30               		.loc 1 14 10 is_stmt 0 view .LVU6
  31 0008 88E1      		ldi r24,lo8(24)
  32               	.LVL1:
  33               		.loc 1 14 10 view .LVU7
  34 000a 8093 C100 		sts 193,r24
  15:src/usart.c   ****   /* Set frame format: 8data, 2stop bit */
  16:src/usart.c   ****   UCSR0C = (1 << USBS0) | (3 << UCSZ00);
  35               		.loc 1 16 3 is_stmt 1 view .LVU8
  36               		.loc 1 16 10 is_stmt 0 view .LVU9
  37 000e E2EC      		ldi r30,lo8(-62)
  38 0010 F0E0      		ldi r31,0
  39 0012 8EE0      		ldi r24,lo8(14)
  40 0014 8083      		st Z,r24
  17:src/usart.c   **** 
  18:src/usart.c   ****   bitSet(UCSR0C, UPM01);
  41               		.loc 1 18 3 is_stmt 1 view .LVU10
  42 0016 8081      		ld r24,Z
  43 0018 8062      		ori r24,lo8(32)
  44 001a 8083      		st Z,r24
  45               	/* epilogue start */
  19:src/usart.c   **** }
  46               		.loc 1 19 1 is_stmt 0 view .LVU11
  47 001c 0895      		ret
  48               		.cfi_endproc
  49               	.LFE4:
  51               	.global	usart_transmit
  53               	usart_transmit:
  54               	.LFB5:
  20:src/usart.c   **** 
  21:src/usart.c   **** void usart_transmit(unsigned char data)
  22:src/usart.c   **** {
  55               		.loc 1 22 1 is_stmt 1 view -0
  56               		.cfi_startproc
  57               	/* prologue: function */
  58               	/* frame size = 0 */
  59               	/* stack size = 0 */
  60               	.L__stack_usage = 0
  61               	.LVL2:
  62               	.L3:
  23:src/usart.c   ****   /* Wait for empty transmit buffer */
  24:src/usart.c   ****   while (!(UCSR0A & (1 << UDRE0)))
  63               		.loc 1 24 10 discriminator 1 view .LVU13
  64               		.loc 1 24 12 is_stmt 0 discriminator 1 view .LVU14
  65 001e 9091 C000 		lds r25,192
  66               		.loc 1 24 10 discriminator 1 view .LVU15
  67 0022 95FF      		sbrs r25,5
  68 0024 00C0      		rjmp .L3
  25:src/usart.c   ****     ;
  26:src/usart.c   ****   /* Put data into buffer, sends the data */
  27:src/usart.c   ****   UDR0 = data;
  69               		.loc 1 27 3 is_stmt 1 view .LVU16
  70               		.loc 1 27 8 is_stmt 0 view .LVU17
  71 0026 8093 C600 		sts 198,r24
  72               	/* epilogue start */
  28:src/usart.c   **** }
  73               		.loc 1 28 1 view .LVU18
  74 002a 0895      		ret
  75               		.cfi_endproc
  76               	.LFE5:
  78               	.global	usart_tx_string
  80               	usart_tx_string:
  81               	.LVL3:
  82               	.LFB6:
  29:src/usart.c   **** 
  30:src/usart.c   **** void usart_tx_string(const char *pStr)
  31:src/usart.c   **** {
  83               		.loc 1 31 1 is_stmt 1 view -0
  84               		.cfi_startproc
  85               		.loc 1 31 1 is_stmt 0 view .LVU20
  86 002c CF93      		push r28
  87               		.cfi_def_cfa_offset 3
  88               		.cfi_offset 28, -2
  89 002e DF93      		push r29
  90               		.cfi_def_cfa_offset 4
  91               		.cfi_offset 29, -3
  92               	/* prologue: function */
  93               	/* frame size = 0 */
  94               	/* stack size = 2 */
  95               	.L__stack_usage = 2
  96 0030 EC01      		movw r28,r24
  32:src/usart.c   ****   while (*pStr != '\0')
  97               		.loc 1 32 3 is_stmt 1 view .LVU21
  98               	.LVL4:
  99               	.L7:
 100               		.loc 1 32 16 view .LVU22
 101               		.loc 1 32 10 is_stmt 0 view .LVU23
 102 0032 8991      		ld r24,Y+
 103               	.LVL5:
 104               		.loc 1 32 16 view .LVU24
 105 0034 8111      		cpse r24,__zero_reg__
 106 0036 00C0      		rjmp .L8
 107               	/* epilogue start */
  33:src/usart.c   ****   {
  34:src/usart.c   ****     usart_transmit(*pStr);
  35:src/usart.c   ****     pStr++;
  36:src/usart.c   ****   }
  37:src/usart.c   **** }
 108               		.loc 1 37 1 view .LVU25
 109 0038 DF91      		pop r29
 110 003a CF91      		pop r28
 111               	.LVL6:
 112               		.loc 1 37 1 view .LVU26
 113 003c 0895      		ret
 114               	.LVL7:
 115               	.L8:
  34:src/usart.c   ****     pStr++;
 116               		.loc 1 34 5 is_stmt 1 view .LVU27
 117 003e 0E94 0000 		call usart_transmit
 118               	.LVL8:
  35:src/usart.c   ****   }
 119               		.loc 1 35 5 view .LVU28
  35:src/usart.c   ****   }
 120               		.loc 1 35 5 is_stmt 0 view .LVU29
 121 0042 00C0      		rjmp .L7
 122               		.cfi_endproc
 123               	.LFE6:
 125               	.global	usart_tx_float
 127               	usart_tx_float:
 128               	.LVL9:
 129               	.LFB7:
  38:src/usart.c   **** 
  39:src/usart.c   **** void usart_tx_float(float x, char num_digits_int, int num_digits_decimal)
  40:src/usart.c   **** {
 130               		.loc 1 40 1 is_stmt 1 view -0
 131               		.cfi_startproc
 132               		.loc 1 40 1 is_stmt 0 view .LVU31
 133 0044 CF92      		push r12
 134               		.cfi_def_cfa_offset 3
 135               		.cfi_offset 12, -2
 136 0046 DF92      		push r13
 137               		.cfi_def_cfa_offset 4
 138               		.cfi_offset 13, -3
 139 0048 EF92      		push r14
 140               		.cfi_def_cfa_offset 5
 141               		.cfi_offset 14, -4
 142 004a FF92      		push r15
 143               		.cfi_def_cfa_offset 6
 144               		.cfi_offset 15, -5
 145 004c 0F93      		push r16
 146               		.cfi_def_cfa_offset 7
 147               		.cfi_offset 16, -6
 148 004e 1F93      		push r17
 149               		.cfi_def_cfa_offset 8
 150               		.cfi_offset 17, -7
 151 0050 CF93      		push r28
 152               		.cfi_def_cfa_offset 9
 153               		.cfi_offset 28, -8
 154 0052 DF93      		push r29
 155               		.cfi_def_cfa_offset 10
 156               		.cfi_offset 29, -9
 157 0054 00D0      		rcall .
 158               		.cfi_def_cfa_offset 12
 159 0056 CDB7      		in r28,__SP_L__
 160 0058 DEB7      		in r29,__SP_H__
 161               		.cfi_def_cfa_register 28
 162               	/* prologue: function */
 163               	/* frame size = 2 */
 164               	/* stack size = 10 */
 165               	.L__stack_usage = 10
 166 005a F62F      		mov r31,r22
 167 005c 582F      		mov r21,r24
 168 005e 392F      		mov r19,r25
  41:src/usart.c   ****   char num_elements = num_digits_int + num_digits_decimal + 1 + 1; // one decimal point and one nul
  42:src/usart.c   ****   char buffer[num_elements];
  43:src/usart.c   **** 
  44:src/usart.c   ****   dtostrf(x, num_elements - 1, num_digits_decimal, buffer);
  45:src/usart.c   ****   buffer[num_elements - 1] = '\0';
  46:src/usart.c   ****   usart_tx_string(buffer);
  47:src/usart.c   **** }
 169               		.loc 1 47 1 view .LVU32
 170 0060 8DB7      		in r24,__SP_L__
 171 0062 9EB7      		in r25,__SP_H__
 172 0064 9A83      		std Y+2,r25
 173 0066 8983      		std Y+1,r24
  41:src/usart.c   ****   char num_elements = num_digits_int + num_digits_decimal + 1 + 1; // one decimal point and one nul
 174               		.loc 1 41 3 is_stmt 1 view .LVU33
  41:src/usart.c   ****   char num_elements = num_digits_int + num_digits_decimal + 1 + 1; // one decimal point and one nul
 175               		.loc 1 41 38 is_stmt 0 view .LVU34
 176 0068 420F      		add r20,r18
 177               	.LVL10:
  41:src/usart.c   ****   char num_elements = num_digits_int + num_digits_decimal + 1 + 1; // one decimal point and one nul
 178               		.loc 1 41 8 view .LVU35
 179 006a 62E0      		ldi r22,lo8(2)
 180 006c E62E      		mov r14,r22
 181               	.LVL11:
  41:src/usart.c   ****   char num_elements = num_digits_int + num_digits_decimal + 1 + 1; // one decimal point and one nul
 182               		.loc 1 41 8 view .LVU36
 183 006e E40E      		add r14,r20
 184               	.LVL12:
  42:src/usart.c   **** 
 185               		.loc 1 42 3 is_stmt 1 view .LVU37
  42:src/usart.c   **** 
 186               		.loc 1 42 8 is_stmt 0 view .LVU38
 187 0070 F12C      		mov r15,__zero_reg__
 188 0072 8E19      		sub r24,r14
 189 0074 9F09      		sbc r25,r15
 190 0076 0FB6      		in __tmp_reg__,__SREG__
 191 0078 F894      		cli
 192 007a 9EBF      		out __SP_H__,r25
 193 007c 0FBE      		out __SREG__,__tmp_reg__
 194 007e 8DBF      		out __SP_L__,r24
 195 0080 0196      		adiw r24,1
 196 0082 6C01      		movw r12,r24
 197               	.LVL13:
  44:src/usart.c   ****   buffer[num_elements - 1] = '\0';
 198               		.loc 1 44 3 is_stmt 1 view .LVU39
  44:src/usart.c   ****   buffer[num_elements - 1] = '\0';
 199               		.loc 1 44 27 is_stmt 0 view .LVU40
 200 0084 4F5F      		subi r20,lo8(-(1))
  44:src/usart.c   ****   buffer[num_elements - 1] = '\0';
 201               		.loc 1 44 3 view .LVU41
 202 0086 8C01      		movw r16,r24
 203 0088 6F2F      		mov r22,r31
 204 008a 852F      		mov r24,r21
 205 008c 932F      		mov r25,r19
 206 008e 0E94 0000 		call dtostrf
 207               	.LVL14:
  45:src/usart.c   ****   usart_tx_string(buffer);
 208               		.loc 1 45 3 is_stmt 1 view .LVU42
  45:src/usart.c   ****   usart_tx_string(buffer);
 209               		.loc 1 45 28 is_stmt 0 view .LVU43
 210 0092 EC0C      		add r14,r12
 211 0094 FD1C      		adc r15,r13
 212               	.LVL15:
  45:src/usart.c   ****   usart_tx_string(buffer);
 213               		.loc 1 45 28 view .LVU44
 214 0096 F701      		movw r30,r14
 215 0098 3197      		sbiw r30,1
 216 009a 1082      		st Z,__zero_reg__
  46:src/usart.c   **** }
 217               		.loc 1 46 3 is_stmt 1 view .LVU45
 218 009c C601      		movw r24,r12
 219 009e 0E94 0000 		call usart_tx_string
 220               	.LVL16:
 221               		.loc 1 47 1 is_stmt 0 view .LVU46
 222 00a2 8981      		ldd r24,Y+1
 223 00a4 9A81      		ldd r25,Y+2
 224 00a6 0FB6      		in __tmp_reg__,__SREG__
 225 00a8 F894      		cli
 226 00aa 9EBF      		out __SP_H__,r25
 227 00ac 0FBE      		out __SREG__,__tmp_reg__
 228 00ae 8DBF      		out __SP_L__,r24
 229               	/* epilogue start */
 230 00b0 0F90      		pop __tmp_reg__
 231 00b2 0F90      		pop __tmp_reg__
 232 00b4 DF91      		pop r29
 233 00b6 CF91      		pop r28
 234 00b8 1F91      		pop r17
 235 00ba 0F91      		pop r16
 236 00bc FF90      		pop r15
 237 00be EF90      		pop r14
 238 00c0 DF90      		pop r13
 239 00c2 CF90      		pop r12
 240               	.LVL17:
 241               		.loc 1 47 1 view .LVU47
 242 00c4 0895      		ret
 243               		.cfi_endproc
 244               	.LFE7:
 246               	.Letext0:
 247               		.file 2 "/nix/store/fhlw83iyhy5zfab548jl2nc693cb3shf-avr-gcc-13.2.0/avr/sys-include/stdint.h"
 248               		.file 3 "/nix/store/fhlw83iyhy5zfab548jl2nc693cb3shf-avr-gcc-13.2.0/avr/sys-include/stdlib.h"